target datalayout = "e-m:e-p270:32:32-p271:32:32-p272:64:64-i64:64-i128:128-f80:128-n8:16:32:64-S128"
target triple = "x86_64-pc-linux-gnu"

%struct.mbedtls_ssl_ciphersuite_t = type { i32, ptr, i8, i8, i8, i8, i16, i16 }

; Function Attrs: nounwind uwtable
define hidden ptr @mbedtls_ssl_ciphersuite_from_string(ptr noundef %0) #0 {
  %2 = alloca ptr, align 8
  %3 = alloca ptr, align 8
  %4 = alloca ptr, align 8
  %5 = alloca i32, align 4
  store ptr %0, ptr %3, align 8, !tbaa !19
  call void @llvm.lifetime.start.p0(i64 8, ptr %4) #5
  store ptr @ciphersuite_definitions, ptr %4, align 8, !tbaa !10
  %6 = load ptr, ptr %3, align 8, !tbaa !19
  %7 = icmp eq ptr null, %6
  br i1 %7, label %8, label %9

8:                                                ; preds = %1
  store ptr null, ptr %2, align 8
  store i32 1, ptr %5, align 4
  br label %28

9:                                                ; preds = %1
  br label %10

10:                                               ; preds = %24, %9
  %11 = load ptr, ptr %4, align 8, !tbaa !10
  %12 = getelementptr inbounds nuw %struct.mbedtls_ssl_ciphersuite_t, ptr %11, i32 0, i32 0
  %13 = load i32, ptr %12, align 8, !tbaa !14
  %14 = icmp ne i32 %13, 0
  br i1 %14, label %15, label %27

15:                                               ; preds = %10
  %16 = load ptr, ptr %4, align 8, !tbaa !10
  %17 = getelementptr inbounds nuw %struct.mbedtls_ssl_ciphersuite_t, ptr %16, i32 0, i32 1
  %18 = load ptr, ptr %17, align 8, !tbaa !20
  %19 = load ptr, ptr %3, align 8, !tbaa !19
  %20 = call i32 @strcmp(ptr noundef %18, ptr noundef %19) #6
  %21 = icmp eq i32 0, %20
  br i1 %21, label %22, label %24

22:                                               ; preds = %15
  %23 = load ptr, ptr %4, align 8, !tbaa !10
  store ptr %23, ptr %2, align 8
  store i32 1, ptr %5, align 4
  br label %28

24:                                               ; preds = %15
  %25 = load ptr, ptr %4, align 8, !tbaa !10
  %26 = getelementptr inbounds nuw %struct.mbedtls_ssl_ciphersuite_t, ptr %25, i32 1
  store ptr %26, ptr %4, align 8, !tbaa !10
  br label %10, !llvm.loop !21

27:                                               ; preds = %10
  store ptr null, ptr %2, align 8
  store i32 1, ptr %5, align 4
  br label %28

28:                                               ; preds = %27, %22, %8
  call void @llvm.lifetime.end.p0(i64 8, ptr %4) #5
  %29 = load ptr, ptr %2, align 8
  ret ptr %29
}