; Function Attrs: nofree nounwind memory(read, inaccessiblemem: none) uwtable
define hidden noundef ptr @mbedtls_ssl_ciphersuite_from_string(ptr noundef readonly %0) local_unnamed_addr #2 {
  %2 = icmp eq ptr %0, null
  br i1 %2, label %.loopexit, label %.preheader

.preheader:                                       ; preds = %1, %7
  %.08 = phi ptr [ %8, %7 ], [ @ciphersuite_definitions, %1 ]
  %3 = getelementptr inbounds nuw i8, ptr %.08, i64 8
  %4 = load ptr, ptr %3, align 8, !tbaa !15
  %5 = tail call i32 @strcmp(ptr noundef nonnull dereferenceable(1) %4, ptr noundef nonnull dereferenceable(1) %0) #7
  %6 = icmp eq i32 %5, 0
  br i1 %6, label %.loopexit, label %7

7:                                                ; preds = %.preheader
  %8 = getelementptr inbounds nuw i8, ptr %.08, i64 24
  %9 = load i32, ptr %8, align 8, !tbaa !3
  %.not = icmp eq i32 %9, 0
  br i1 %.not, label %.loopexit, label %.preheader, !llvm.loop !16

.loopexit:                                        ; preds = %7, %.preheader, %1
  %.07 = phi ptr [ null, %1 ], [ null, %7 ], [ %.08, %.preheader ]
  ret ptr %.07
}